Certificate:
    Data:
        Version: 3 (0x2)
        Serial Number: 4096 (0x1000)
    Signature Algorithm: md5WithRSAEncryption
        Issuer: C=US, ST=UT, L=SLC, O=UU, OU=SC, CN=CA
        Validity
            Not Before: Mar 27 22:16:50 2020 GMT
            Not After : Mar 27 22:16:50 2021 GMT
        Subject: C=US, ST=UT, O=UU, OU=SC, CN=server
        Subject Public Key Info:
            Public Key Algorithm: rsaEncryption
                Public-Key: (4096 bit)
                Modulus:
                    00:ac:e6:e5:b7:c3:81:70:a4:e7:66:ac:68:71:29:
                    ae:fc:5e:c0:6e:f0:f4:e9:6e:85:91:c5:ca:ef:7b:
                    5d:8a:26:6c:73:70:7c:51:c2:47:b8:99:d9:72:47:
                    79:b8:7b:26:26:7b:b3:a1:d4:78:03:8d:ea:a3:7c:
                    df:f0:74:14:65:f0:fe:76:36:7f:0a:e6:0b:dc:5f:
                    82:44:bb:3b:1a:d6:e9:c5:3e:ed:72:a8:ee:0f:37:
                    a4:37:aa:36:70:6d:82:16:bc:b5:de:a4:b7:bc:78:
                    f4:c0:18:a5:31:53:21:0a:45:bc:70:d1:f4:53:09:
                    7f:00:ee:7f:3d:1c:3b:d7:a2:f0:b9:5f:ec:b6:49:
                    71:fe:14:77:bc:5d:d4:a6:50:96:38:af:ab:94:00:
                    f2:3e:02:0e:2a:6d:00:50:13:70:df:c7:8a:05:d1:
                    c0:e0:4f:0f:16:ae:43:42:df:93:48:3a:30:4c:ba:
                    4d:5b:d4:ef:13:cd:5d:51:55:6f:43:67:88:58:05:
                    f3:0a:58:0e:c3:e7:43:c6:18:61:df:ee:db:2e:79:
                    e3:ba:43:4f:d4:18:a6:93:80:6b:27:e2:43:70:9f:
                    cd:ba:9d:a8:a8:41:43:5d:d3:88:a6:d4:d5:2a:20:
                    e0:c5:f2:1d:13:48:8c:34:ce:92:b0:c3:a9:d1:dc:
                    e0:5e:74:22:9e:9f:93:e8:0f:91:a4:60:17:3d:a3:
                    b2:d7:99:a8:27:ec:5a:75:37:ed:e0:c5:08:07:3d:
                    9b:d3:1d:74:3b:a7:ca:3c:e5:35:2b:cd:8a:5b:18:
                    69:67:3b:6e:e8:ed:3c:cf:df:3e:c5:37:4e:1e:5f:
                    fb:aa:d8:45:bd:5c:88:ea:b7:d6:db:56:29:c2:1f:
                    91:48:24:e1:a6:13:32:73:e1:ad:42:4c:19:14:3f:
                    6a:87:87:71:3f:c1:38:f4:05:7b:d9:57:35:4a:99:
                    33:62:e8:9f:fe:d9:95:43:67:bf:9e:a1:92:38:0c:
                    8a:71:70:4f:c2:ba:ad:cd:1a:2c:91:eb:c6:6e:fd:
                    c5:cf:da:c3:ec:18:cf:79:85:be:43:eb:f5:ef:ad:
                    28:c6:71:19:7e:3d:b4:88:40:e1:e2:c9:ef:1a:18:
                    39:ce:37:18:80:68:95:27:67:51:6d:4d:75:c9:99:
                    85:8a:7f:1e:06:5d:82:5b:41:bc:7a:67:60:b5:15:
                    06:16:4b:24:e3:f3:af:45:e2:df:d8:55:2f:8c:d0:
                    d6:ef:e7:f3:6f:c0:6a:9d:90:04:45:cf:3a:bd:af:
                    f2:97:1f:06:53:d3:51:65:41:98:fb:0e:9e:68:e5:
                    bd:47:71:72:f6:08:c0:c4:f5:2d:1c:07:27:a2:cb:
                    cb:85:e3
                Exponent: 65537 (0x10001)
        X509v3 extensions:
            X509v3 Basic Constraints: 
                CA:FALSE
            Netscape Comment: 
                OpenSSL Generated Certificate
            X509v3 Subject Key Identifier: 
                C5:2E:A6:AB:5E:D1:EE:BE:8A:42:BA:F2:F5:E0:5C:75:F1:2E:65:D8
            X509v3 Authority Key Identifier: 
                DirName:/C=US/ST=UT/L=SLC/O=UU/OU=SC/CN=CA
                serial:A7:85:4B:C6:12:2B:9B:92

    Signature Algorithm: md5WithRSAEncryption
         02:22:ce:5c:6d:a4:67:87:68:59:14:71:7c:91:bc:15:0a:4f:
         76:11:a2:62:29:07:1b:03:5f:67:c4:80:17:13:b7:f4:1d:c6:
         90:50:2a:33:dc:e2:ca:7c:84:81:73:05:29:43:44:22:cc:96:
         e4:fd:58:d0:8a:6f:76:42:4b:5d:18:6b:57:0f:d3:9a:a8:4b:
         96:88:18:d9:91:23:9a:69:ec:ca:f4:97:53:80:84:70:30:71:
         dd:5c:41:4e:7f:f2:c9:44:03:2a:d0:d2:34:9a:29:42:62:9d:
         34:c8:f9:8e:d4:7b:a2:21:40:d7:9e:fc:c8:43:7b:34:81:5f:
         c6:75:8d:bb:0f:b9:aa:d8:6d:ae:18:be:3b:36:9b:0e:ab:51:
         4d:f9:5e:b9:15:80:20:03:d4:84:6e:c8:d2:e0:ad:83:53:b7:
         79:e4:bd:74:49:39:41:eb:69:58:e2:39:57:98:46:5e:3e:b7:
         90:af:86:ff:b1:19:19:e6:8e:0f:9b:da:3a:ae:7d:20:de:b0:
         05:41:0f:d8:0a:e4:5a:24:03:19:45:a8:77:7c:05:b7:21:21:
         ce:34:36:55:95:8a:2b:25:14:bc:af:4f:f2:20:f0:0c:d3:07:
         e1:45:6d:99:64:aa:e2:ed:43:aa:43:a8:34:13:77:fa:39:ef:
         8a:e4:ae:b6:ee:04:15:fa:ea:ee:d9:79:26:a1:24:ce:04:d5:
         09:ae:b1:83:12:67:8a:41:d8:37:7e:ea:c4:2a:bb:87:fc:7a:
         3e:0a:99:9e:31:3b:1a:42:e3:cb:91:16:bb:30:70:1c:ae:5a:
         e0:2b:13:c1:b1:21:6b:60:5a:61:e9:5a:9e:f5:48:df:f4:a7:
         ad:4d:27:00:fb:ce:f9:64:bc:93:d0:64:c7:d4:dd:d0:30:96:
         14:2e:ba:b9:d4:2d:eb:bf:ad:06:d7:f1:40:33:45:ac:bc:22:
         e1:36:3f:20:eb:90:f0:0c:76:fb:32:df:d7:9d:3c:74:1a:01:
         fa:89:f1:c8:a7:09:42:b8:f8:03:63:d6:a7:f2:18:89:91:d8:
         31:92:d0:e5:e2:5b:ef:38:f9:a8:dc:10:66:79:b7:ce:4a:42:
         ee:2b:f0:71:6e:13:77:4a:f5:e6:d5:ca:b7:19:98:7b:9b:dc:
         f8:30:8e:fc:86:b2:67:28:78:40:82:5d:1e:05:a5:e4:f7:3d:
         f4:58:22:1a:3c:f2:4a:86:50:66:a1:69:42:14:7b:56:01:fa:
         3f:87:07:b0:a0:6e:d8:e5:b7:1f:b4:4e:2f:e6:f7:08:c1:7a:
         9b:c0:3b:99:49:a6:cc:a1:13:82:a6:53:2d:19:24:74:42:0b:
         37:00:9f:18:63:f5:b9:dc
-----BEGIN CERTIFICATE-----
MIIF1zCCA7+gAwIBAgICEAAwDQYJKoZIhvcNAQEEBQAwTzELMAkGA1UEBhMCVVMx
CzAJBgNVBAgMAlVUMQwwCgYDVQQHDANTTEMxCzAJBgNVBAoMAlVVMQswCQYDVQQL
DAJTQzELMAkGA1UEAwwCQ0EwHhcNMjAwMzI3MjIxNjUwWhcNMjEwMzI3MjIxNjUw
WjBFMQswCQYDVQQGEwJVUzELMAkGA1UECAwCVVQxCzAJBgNVBAoMAlVVMQswCQYD
VQQLDAJTQzEPMA0GA1UEAwwGc2VydmVyMIICIjANBgkqhkiG9w0BAQEFAAOCAg8A
MIICCgKCAgEArOblt8OBcKTnZqxocSmu/F7AbvD06W6FkcXK73tdiiZsc3B8UcJH
uJnZckd5uHsmJnuzodR4A43qo3zf8HQUZfD+djZ/CuYL3F+CRLs7GtbpxT7tcqju
DzekN6o2cG2CFry13qS3vHj0wBilMVMhCkW8cNH0Uwl/AO5/PRw716LwuV/stklx
/hR3vF3UplCWOK+rlADyPgIOKm0AUBNw38eKBdHA4E8PFq5DQt+TSDowTLpNW9Tv
E81dUVVvQ2eIWAXzClgOw+dDxhhh3+7bLnnjukNP1Bimk4BrJ+JDcJ/Nup2oqEFD
XdOIptTVKiDgxfIdE0iMNM6SsMOp0dzgXnQinp+T6A+RpGAXPaOy15moJ+xadTft
4MUIBz2b0x10O6fKPOU1K82KWxhpZztu6O08z98+xTdOHl/7qthFvVyI6rfW21Yp
wh+RSCThphMyc+GtQkwZFD9qh4dxP8E49AV72Vc1SpkzYuif/tmVQ2e/nqGSOAyK
cXBPwrqtzRoskevGbv3Fz9rD7BjPeYW+Q+v1760oxnEZfj20iEDh4snvGhg5zjcY
gGiVJ2dRbU11yZmFin8eBl2CW0G8emdgtRUGFksk4/OvReLf2FUvjNDW7+fzb8Bq
nZAERc86va/ylx8GU9NRZUGY+w6eaOW9R3Fy9gjAxPUtHAcnosvLheMCAwEAAaOB
xjCBwzAJBgNVHRMEAjAAMCwGCWCGSAGG+EIBDQQfFh1PcGVuU1NMIEdlbmVyYXRl
ZCBDZXJ0aWZpY2F0ZTAdBgNVHQ4EFgQUxS6mq17R7r6KQrry9eBcdfEuZdgwaQYD
VR0jBGIwYKFTpFEwTzELMAkGA1UEBhMCVVMxCzAJBgNVBAgMAlVUMQwwCgYDVQQH
DANTTEMxCzAJBgNVBAoMAlVVMQswCQYDVQQLDAJTQzELMAkGA1UEAwwCQ0GCCQCn
hUvGEiubkjANBgkqhkiG9w0BAQQFAAOCAgEAAiLOXG2kZ4doWRRxfJG8FQpPdhGi
YikHGwNfZ8SAFxO39B3GkFAqM9ziynyEgXMFKUNEIsyW5P1Y0IpvdkJLXRhrVw/T
mqhLlogY2ZEjmmnsyvSXU4CEcDBx3VxBTn/yyUQDKtDSNJopQmKdNMj5jtR7oiFA
1578yEN7NIFfxnWNuw+5qthtrhi+OzabDqtRTfleuRWAIAPUhG7I0uCtg1O3eeS9
dEk5QetpWOI5V5hGXj63kK+G/7EZGeaOD5vaOq59IN6wBUEP2ArkWiQDGUWod3wF
tyEhzjQ2VZWKKyUUvK9P8iDwDNMH4UVtmWSq4u1DqkOoNBN3+jnviuSutu4EFfrq
7tl5JqEkzgTVCa6xgxJnikHYN37qxCq7h/x6PgqZnjE7GkLjy5EWuzBwHK5a4CsT
wbEha2BaYelanvVI3/SnrU0nAPvO+WS8k9Bkx9Td0DCWFC66udQt67+tBtfxQDNF
rLwi4TY/IOuQ8Ax2+zLf1508dBoB+onxyKcJQrj4A2PWp/IYiZHYMZLQ5eJb7zj5
qNwQZnm3zkpC7ivwcW4Td0r15tXKtxmYe5vc+DCO/IayZyh4QIJdHgWl5Pc99Fgi
GjzySoZQZqFpQhR7VgH6P4cHsKBu2OW3H7ROL+b3CMF6m8A7mUmmzKETgqZTLRkk
dEILNwCfGGP1udw=
-----END CERTIFICATE-----
