Certificate:
    Data:
        Version: 3 (0x2)
        Serial Number: 4097 (0x1001)
    Signature Algorithm: md5WithRSAEncryption
        Issuer: C=US, ST=UT, L=SLC, O=UU, OU=SC, CN=CA
        Validity
            Not Before: Mar 27 22:17:25 2020 GMT
            Not After : Mar 27 22:17:25 2021 GMT
        Subject: C=US, ST=UT, O=UU, OU=SC, CN=client
        Subject Public Key Info:
            Public Key Algorithm: rsaEncryption
                Public-Key: (4096 bit)
                Modulus:
                    00:b3:48:9f:56:25:c7:16:a7:eb:a4:42:12:ee:23:
                    58:01:53:55:e4:e7:c1:f7:63:20:8a:a1:e4:fe:a5:
                    33:cb:d5:ac:a1:62:4b:fb:64:51:12:7b:25:52:ed:
                    6f:54:a4:2c:33:23:16:17:ea:84:19:51:ae:9c:24:
                    88:51:54:93:ab:44:ae:95:2e:be:80:14:31:f6:75:
                    22:81:0a:d6:34:a6:c7:d0:8d:20:46:a1:e3:99:ae:
                    9b:70:2e:cd:d0:c5:63:a7:34:0a:cb:4c:81:2e:27:
                    04:4a:d0:9c:71:81:39:25:24:36:50:e6:08:85:2e:
                    b1:91:87:04:0c:05:3e:36:ac:1a:5e:f4:f0:51:c0:
                    22:55:16:05:c2:4b:17:64:a6:a7:fe:47:8c:2d:95:
                    d2:ec:a5:be:b3:43:0b:02:d5:71:e3:e3:ec:f9:8c:
                    98:bb:bf:e9:c3:e9:b2:a5:a3:c3:0c:f6:25:31:30:
                    59:69:a4:a6:a4:3f:23:66:01:03:9f:bd:b8:a7:ca:
                    a9:c9:ed:8b:b1:95:44:fc:8f:4b:27:65:4a:78:ab:
                    95:7f:90:3c:87:c6:bd:38:0e:b5:3c:47:ce:b7:f0:
                    52:70:57:43:fa:51:2c:79:06:b8:dd:4e:f6:2f:12:
                    a8:ca:ca:ef:6a:0c:45:e5:58:93:58:5f:e3:2a:d5:
                    7c:38:b0:88:25:11:b8:c8:1b:b7:be:5b:38:5f:62:
                    cd:6f:ca:df:8a:97:a7:ee:ca:2b:d1:c1:e1:a8:b5:
                    e7:67:77:43:d1:c5:63:1e:05:a1:fc:48:f9:fc:e8:
                    87:86:5b:4c:37:61:11:c8:f3:37:c3:10:8a:bf:5e:
                    db:26:ab:b5:f0:3d:c3:1c:9e:55:42:9d:9b:39:bb:
                    6a:19:47:1a:fd:46:55:da:02:3f:cb:a5:ec:7d:c3:
                    04:45:22:71:c9:46:fa:88:64:fe:5f:58:2f:37:18:
                    04:26:cd:de:9d:b9:cd:65:ab:e9:c8:57:4c:08:16:
                    65:12:cc:61:21:2d:e6:8a:c8:df:39:a6:bb:f8:5c:
                    75:8d:d6:ba:56:a7:62:e2:99:76:2f:2d:7c:52:9a:
                    7e:b5:59:30:c3:65:b8:0c:6b:90:a4:e2:f6:96:0b:
                    18:95:e2:bb:0c:da:a8:97:da:79:b1:b8:2b:61:e1:
                    df:7c:99:cd:cb:59:d6:04:fb:44:cb:a3:cb:ba:8d:
                    e2:c7:30:8e:b6:6a:c0:d0:0b:75:3d:81:cf:da:26:
                    4a:7b:4d:8b:7f:10:e9:dd:48:24:e4:52:15:db:b1:
                    53:a8:af:30:2b:ad:df:f4:5e:8c:c5:84:b7:45:13:
                    80:fb:67:be:71:66:06:93:16:19:71:2d:fa:bb:3a:
                    ea:b5:a7
                Exponent: 65537 (0x10001)
        X509v3 extensions:
            X509v3 Basic Constraints: 
                CA:FALSE
            Netscape Comment: 
                OpenSSL Generated Certificate
            X509v3 Subject Key Identifier: 
                81:48:14:E0:1F:5A:07:71:4A:44:49:38:C6:CC:A4:E6:2B:52:CB:35
            X509v3 Authority Key Identifier: 
                DirName:/C=US/ST=UT/L=SLC/O=UU/OU=SC/CN=CA
                serial:A7:85:4B:C6:12:2B:9B:92

    Signature Algorithm: md5WithRSAEncryption
         1b:ac:08:f9:1d:72:2c:4a:e9:ee:bb:46:89:31:00:ec:1c:24:
         a9:f7:1a:93:9e:4d:e8:78:81:c8:05:d0:b8:8a:ef:bd:cd:3e:
         39:7f:cd:5b:9d:9d:70:de:f5:0a:54:00:2a:10:9a:1a:8e:6c:
         01:e9:24:40:0b:77:a2:3c:21:a8:0a:d7:86:fe:75:1f:f2:54:
         37:8a:df:ed:91:ff:49:96:d0:e7:17:ef:e2:a6:fa:51:c6:01:
         57:41:f9:fc:33:2c:75:00:d3:79:c4:3f:d0:a6:fb:31:2a:6a:
         de:e6:b0:58:a2:18:18:8c:89:99:37:07:8c:11:e4:44:3f:fd:
         fc:c4:e7:2d:cf:46:7d:24:a2:e1:23:f6:cc:80:a0:73:89:7e:
         ea:ce:7b:b5:82:b8:6c:45:1b:1d:35:68:52:39:e8:a2:a8:35:
         5e:db:25:d7:ff:cc:a2:64:9b:27:e9:b8:24:31:76:f5:c4:de:
         a5:5d:dc:9a:dc:f5:22:2e:e4:4f:df:85:5e:04:f5:dc:55:ab:
         bc:75:26:b8:2c:d4:3c:13:1b:bf:d4:1d:c2:98:86:b0:a2:d0:
         b8:08:79:66:9a:ec:d4:bd:22:38:fd:f9:7c:70:df:03:de:7a:
         ca:50:3c:e1:f9:2d:b0:48:c8:fc:22:7d:3c:21:11:70:86:be:
         d6:15:a5:b7:83:3b:a8:86:d7:bd:b7:a6:4a:3b:46:df:37:75:
         05:e2:14:f4:4f:99:da:f8:e6:0e:e2:f8:47:4d:a8:eb:f6:3f:
         31:2e:e5:6b:8f:a5:b0:ea:36:cf:68:23:9d:23:98:b0:04:93:
         59:7e:b4:f8:71:b7:2c:70:ed:b9:06:c0:05:23:d6:6c:da:e1:
         53:f3:88:4c:41:b0:76:11:0b:f0:3d:24:df:19:43:13:be:d4:
         5d:1c:35:b0:1e:26:65:40:b7:92:fa:39:41:4b:f9:7b:25:a6:
         be:81:c3:ba:82:e6:9c:b7:f8:20:72:39:01:a6:30:18:75:c9:
         25:c6:69:84:38:97:65:bf:40:63:ed:50:0c:66:50:04:b4:92:
         f7:76:d4:8e:11:a6:87:fc:ad:58:36:cd:48:71:a3:82:61:a8:
         6b:d5:16:72:31:ec:1b:fd:4f:23:7b:d7:73:bc:9b:06:88:44:
         b5:71:64:52:e1:ed:32:5a:46:ab:db:30:53:f0:c5:99:24:0c:
         da:58:2f:92:6f:95:7d:11:b4:48:ca:42:b1:18:19:0c:fe:99:
         1f:0f:09:f1:fe:be:08:6a:33:b1:ea:2d:42:0b:47:10:ee:83:
         d3:93:a5:12:67:65:06:3e:f5:79:ab:af:b4:a8:8a:f1:83:d8:
         7b:64:7b:9a:ad:cb:29:76
-----BEGIN CERTIFICATE-----
MIIF1zCCA7+gAwIBAgICEAEwDQYJKoZIhvcNAQEEBQAwTzELMAkGA1UEBhMCVVMx
CzAJBgNVBAgMAlVUMQwwCgYDVQQHDANTTEMxCzAJBgNVBAoMAlVVMQswCQYDVQQL
DAJTQzELMAkGA1UEAwwCQ0EwHhcNMjAwMzI3MjIxNzI1WhcNMjEwMzI3MjIxNzI1
WjBFMQswCQYDVQQGEwJVUzELMAkGA1UECAwCVVQxCzAJBgNVBAoMAlVVMQswCQYD
VQQLDAJTQzEPMA0GA1UEAwwGY2xpZW50MIICIjANBgkqhkiG9w0BAQEFAAOCAg8A
MIICCgKCAgEAs0ifViXHFqfrpEIS7iNYAVNV5OfB92MgiqHk/qUzy9WsoWJL+2RR
EnslUu1vVKQsMyMWF+qEGVGunCSIUVSTq0SulS6+gBQx9nUigQrWNKbH0I0gRqHj
ma6bcC7N0MVjpzQKy0yBLicEStCccYE5JSQ2UOYIhS6xkYcEDAU+NqwaXvTwUcAi
VRYFwksXZKan/keMLZXS7KW+s0MLAtVx4+Ps+YyYu7/pw+mypaPDDPYlMTBZaaSm
pD8jZgEDn724p8qpye2LsZVE/I9LJ2VKeKuVf5A8h8a9OA61PEfOt/BScFdD+lEs
eQa43U72LxKoysrvagxF5ViTWF/jKtV8OLCIJRG4yBu3vls4X2LNb8rfipen7sor
0cHhqLXnZ3dD0cVjHgWh/Ej5/OiHhltMN2ERyPM3wxCKv17bJqu18D3DHJ5VQp2b
ObtqGUca/UZV2gI/y6XsfcMERSJxyUb6iGT+X1gvNxgEJs3enbnNZavpyFdMCBZl
EsxhIS3misjfOaa7+Fx1jda6Vqdi4pl2Ly18Upp+tVkww2W4DGuQpOL2lgsYleK7
DNqol9p5sbgrYeHffJnNy1nWBPtEy6PLuo3ixzCOtmrA0At1PYHP2iZKe02LfxDp
3Ugk5FIV27FTqK8wK63f9F6MxYS3RROA+2e+cWYGkxYZcS36uzrqtacCAwEAAaOB
xjCBwzAJBgNVHRMEAjAAMCwGCWCGSAGG+EIBDQQfFh1PcGVuU1NMIEdlbmVyYXRl
ZCBDZXJ0aWZpY2F0ZTAdBgNVHQ4EFgQUgUgU4B9aB3FKREk4xsyk5itSyzUwaQYD
VR0jBGIwYKFTpFEwTzELMAkGA1UEBhMCVVMxCzAJBgNVBAgMAlVUMQwwCgYDVQQH
DANTTEMxCzAJBgNVBAoMAlVVMQswCQYDVQQLDAJTQzELMAkGA1UEAwwCQ0GCCQCn
hUvGEiubkjANBgkqhkiG9w0BAQQFAAOCAgEAG6wI+R1yLErp7rtGiTEA7Bwkqfca
k55N6HiByAXQuIrvvc0+OX/NW52dcN71ClQAKhCaGo5sAekkQAt3ojwhqArXhv51
H/JUN4rf7ZH/SZbQ5xfv4qb6UcYBV0H5/DMsdQDTecQ/0Kb7MSpq3uawWKIYGIyJ
mTcHjBHkRD/9/MTnLc9GfSSi4SP2zICgc4l+6s57tYK4bEUbHTVoUjnooqg1Xtsl
1//MomSbJ+m4JDF29cTepV3cmtz1Ii7kT9+FXgT13FWrvHUmuCzUPBMbv9QdwpiG
sKLQuAh5Zprs1L0iOP35fHDfA956ylA84fktsEjI/CJ9PCERcIa+1hWlt4M7qIbX
vbemSjtG3zd1BeIU9E+Z2vjmDuL4R02o6/Y/MS7la4+lsOo2z2gjnSOYsASTWX60
+HG3LHDtuQbABSPWbNrhU/OITEGwdhEL8D0k3xlDE77UXRw1sB4mZUC3kvo5QUv5
eyWmvoHDuoLmnLf4IHI5AaYwGHXJJcZphDiXZb9AY+1QDGZQBLSS93bUjhGmh/yt
WDbNSHGjgmGoa9UWcjHsG/1PI3vXc7ybBohEtXFkUuHtMlpGq9swU/DFmSQM2lgv
km+VfRG0SMpCsRgZDP6ZHw8J8f6+CGozseotQgtHEO6D05OlEmdlBj71eauvtKiK
8YPYe2R7mq3LKXY=
-----END CERTIFICATE-----
